target datalayout = "e-m:e-p270:32:32-p271:32:32-p272:64:64-i64:64-i128:128-f80:128-n8:16:32:64-S128"
target triple = "x86_64-pc-linux-gnu"

%"class.cv::bioinspired::RetinaFilter" = type <{ i8, i8, [2 x i8], i32, i32, [4 x i8], %"class.std::valarray", %"class.std::valarray", %"class.cv::bioinspired::BasicRetinaFilter", %"class.cv::bioinspired::ParvoRetinaFilter", %"class.cv::bioinspired::MagnoRetinaFilter", %"class.cv::bioinspired::RetinaColor", ptr, i8, i8, i8, i8, float, i8, [7 x i8] }>
%"class.std::valarray" = type { i64, ptr }
%"class.cv::bioinspired::BasicRetinaFilter" = type { %"class.cv::bioinspired::TemplateBuffer", %"class.std::valarray", i32, i32, %"class.std::valarray", %"class.std::valarray", %"class.std::valarray", float, float, float, float, float, float, float, float }
%"class.cv::bioinspired::TemplateBuffer" = type { ptr, %"class.std::valarray", i64, i64, i64, i64, i64 }
%"class.cv::bioinspired::ParvoRetinaFilter" = type { ptr, %"class.cv::bioinspired::BasicRetinaFilter", %"class.std::valarray", %"class.std::valarray", %"class.std::valarray", %"class.std::valarray", %"class.std::valarray", %"class.std::valarray", %"class.std::valarray", ptr, ptr }
%"class.cv::bioinspired::MagnoRetinaFilter" = type <{ ptr, %"class.cv::bioinspired::BasicRetinaFilter", %"class.std::valarray", %"class.std::valarray", %"class.std::valarray", %"class.std::valarray", %"class.std::valarray", %"class.std::valarray", %"class.std::valarray", %"class.std::valarray", ptr, ptr, float, [4 x i8] }>
%"class.cv::bioinspired::RetinaColor" = type <{ ptr, %"class.cv::bioinspired::BasicRetinaFilter", i32, i8, [3 x i8], float, [4 x i8], ptr, ptr, %"class.std::valarray.0", %"class.std::valarray", %"class.std::valarray", %"class.std::valarray", %"class.std::valarray", %"class.std::valarray", %"class.std::valarray", %"class.std::valarray", float, float, float, i8, [3 x i8] }>
%"class.std::valarray.0" = type { i64, ptr }

; Function Attrs: inlinehint mustprogress nounwind uwtable
define linkonce_odr hidden void @_ZNSt16_Array_copy_ctorIfLb1EE8_S_do_itEPKfS2_Pf(ptr noundef %0, ptr noundef %1, ptr noalias noundef %2) #6 comdat align 2 {
  %4 = alloca ptr, align 8
  %5 = alloca ptr, align 8
  %6 = alloca ptr, align 8
  store ptr %0, ptr %4, align 8, !tbaa !47
  store ptr %1, ptr %5, align 8, !tbaa !47
  store ptr %2, ptr %6, align 8, !tbaa !47
  %7 = load ptr, ptr %4, align 8, !tbaa !47
  %8 = icmp ne ptr %7, null
  br i1 %8, label %9, label %19

9:                                                ; preds = %3
  %10 = load ptr, ptr %6, align 8, !tbaa !47
  %11 = load ptr, ptr %4, align 8, !tbaa !47
  %12 = load ptr, ptr %5, align 8, !tbaa !47
  %13 = load ptr, ptr %4, align 8, !tbaa !47
  %14 = ptrtoint ptr %12 to i64
  %15 = ptrtoint ptr %13 to i64
  %16 = sub i64 %14, %15
  %17 = sdiv exact i64 %16, 4
  %18 = mul i64 %17, 4
  call void @llvm.memcpy.p0.p0.i64(ptr align 4 %10, ptr align 4 %11, i64 %18, i1 false)
  br label %19

19:                                               ; preds = %9, %3
  ret void
}

; Function Attrs: inlinehint mustprogress nounwind uwtable
define linkonce_odr hidden void @_ZNSt13_Array_copierIfLb1EE8_S_do_itEPKfmPf(ptr noalias noundef %0, i64 noundef %1, ptr noalias noundef %2) #6 comdat align 2 {
  %4 = alloca ptr, align 8
  %5 = alloca i64, align 8
  %6 = alloca ptr, align 8
  store ptr %0, ptr %4, align 8, !tbaa !47
  store i64 %1, ptr %5, align 8, !tbaa !39
  store ptr %2, ptr %6, align 8, !tbaa !47
  %7 = load i64, ptr %5, align 8, !tbaa !39
  %8 = icmp ne i64 %7, 0
  br i1 %8, label %9, label %14

9:                                                ; preds = %3
  %10 = load ptr, ptr %6, align 8, !tbaa !47
  %11 = load ptr, ptr %4, align 8, !tbaa !47
  %12 = load i64, ptr %5, align 8, !tbaa !39
  %13 = mul i64 %12, 4
  call void @llvm.memcpy.p0.p0.i64(ptr align 4 %10, ptr align 4 %11, i64 %13, i1 false)
  br label %14

14:                                               ; preds = %9, %3
  ret void
}

; Function Attrs: inlinehint mustprogress uwtable
define linkonce_odr void @_ZSt25__valarray_copy_constructIfEvPKT_S2_PS0_(ptr noundef %0, ptr noundef %1, ptr noalias noundef %2) #5 comdat {
  %4 = alloca ptr, align 8
  %5 = alloca ptr, align 8
  %6 = alloca ptr, align 8
  store ptr %0, ptr %4, align 8, !tbaa !47
  store ptr %1, ptr %5, align 8, !tbaa !47
  store ptr %2, ptr %6, align 8, !tbaa !47
  %7 = load ptr, ptr %4, align 8, !tbaa !47
  %8 = load ptr, ptr %5, align 8, !tbaa !47
  %9 = load ptr, ptr %6, align 8, !tbaa !47
  call void @_ZNSt16_Array_copy_ctorIfLb1EE8_S_do_itEPKfS2_Pf(ptr noundef %7, ptr noundef %8, ptr noundef %9)
  ret void
}

; Function Attrs: inlinehint mustprogress uwtable
define linkonce_odr noalias noundef ptr @_ZSt22__valarray_get_storageIfEPT_m(i64 noundef %0) #5 comdat {
  %2 = alloca i64, align 8
  store i64 %0, ptr %2, align 8, !tbaa !39
  %3 = load i64, ptr %2, align 8, !tbaa !39
  %4 = mul i64 %3, 4
  %5 = call noalias noundef nonnull ptr @_Znwm(i64 noundef %4) #18
  ret ptr %5
}

; Function Attrs: inlinehint mustprogress nounwind uwtable
define linkonce_odr void @_ZSt25__valarray_release_memoryPv(ptr noundef %0) #6 comdat {
  %2 = alloca ptr, align 8
  store ptr %0, ptr %2, align 8, !tbaa !46
  %3 = load ptr, ptr %2, align 8, !tbaa !46
  call void @_ZdlPv(ptr noundef %3) #3
  ret void
}

; Function Attrs: inlinehint mustprogress nounwind uwtable
define linkonce_odr void @_ZSt27__valarray_destroy_elementsIfEvPT_S1_(ptr noundef %0, ptr noundef %1) #6 comdat {
  %3 = alloca ptr, align 8
  %4 = alloca ptr, align 8
  store ptr %0, ptr %3, align 8, !tbaa !47
  store ptr %1, ptr %4, align 8, !tbaa !47
  ret void
}

; Function Attrs: inlinehint mustprogress uwtable
define linkonce_odr void @_ZSt15__valarray_copyIfEvPKT_mPS0_(ptr noalias noundef %0, i64 noundef %1, ptr noalias noundef %2) #5 comdat {
  %4 = alloca ptr, align 8
  %5 = alloca i64, align 8
  %6 = alloca ptr, align 8
  store ptr %0, ptr %4, align 8, !tbaa !47
  store i64 %1, ptr %5, align 8, !tbaa !39
  store ptr %2, ptr %6, align 8, !tbaa !47
  %7 = load ptr, ptr %4, align 8, !tbaa !47
  %8 = load i64, ptr %5, align 8, !tbaa !39
  %9 = load ptr, ptr %6, align 8, !tbaa !47
  call void @_ZNSt13_Array_copierIfLb1EE8_S_do_itEPKfmPf(ptr noundef %7, i64 noundef %8, ptr noundef %9)
  ret void
}

; Function Attrs: inlinehint mustprogress uwtable
define linkonce_odr hidden noundef nonnull align 8 dereferenceable(16) ptr @_ZNSt8valarrayIfEaSERKS0_(ptr noundef nonnull align 8 dereferenceable(16) %0, ptr noundef nonnull align 8 dereferenceable(16) %1) #5 comdat align 2 {
  %3 = alloca ptr, align 8
  %4 = alloca ptr, align 8
  store ptr %0, ptr %3, align 8, !tbaa !38
  store ptr %1, ptr %4, align 8, !tbaa !38
  %5 = load ptr, ptr %3, align 8
  %6 = getelementptr inbounds nuw %"class.std::valarray", ptr %5, i32 0, i32 0
  %7 = load i64, ptr %6, align 8, !tbaa !40
  %8 = load ptr, ptr %4, align 8, !tbaa !38
  %9 = getelementptr inbounds nuw %"class.std::valarray", ptr %8, i32 0, i32 0
  %10 = load i64, ptr %9, align 8, !tbaa !40
  %11 = icmp eq i64 %7, %10
  br i1 %11, label %12, label %20

12:                                               ; preds = %2
  %13 = load ptr, ptr %4, align 8, !tbaa !38
  %14 = getelementptr inbounds nuw %"class.std::valarray", ptr %13, i32 0, i32 1
  %15 = load ptr, ptr %14, align 8, !tbaa !41
  %16 = getelementptr inbounds nuw %"class.std::valarray", ptr %5, i32 0, i32 0
  %17 = load i64, ptr %16, align 8, !tbaa !40
  %18 = getelementptr inbounds nuw %"class.std::valarray", ptr %5, i32 0, i32 1
  %19 = load ptr, ptr %18, align 8, !tbaa !41
  call void @_ZSt15__valarray_copyIfEvPKT_mPS0_(ptr noundef %15, i64 noundef %17, ptr noundef %19)
  br label %54

20:                                               ; preds = %2
  %21 = getelementptr inbounds nuw %"class.std::valarray", ptr %5, i32 0, i32 1
  %22 = load ptr, ptr %21, align 8, !tbaa !41
  %23 = icmp ne ptr %22, null
  br i1 %23, label %24, label %34

24:                                               ; preds = %20
  %25 = getelementptr inbounds nuw %"class.std::valarray", ptr %5, i32 0, i32 1
  %26 = load ptr, ptr %25, align 8, !tbaa !41
  %27 = getelementptr inbounds nuw %"class.std::valarray", ptr %5, i32 0, i32 1
  %28 = load ptr, ptr %27, align 8, !tbaa !41
  %29 = getelementptr inbounds nuw %"class.std::valarray", ptr %5, i32 0, i32 0
  %30 = load i64, ptr %29, align 8, !tbaa !40
  %31 = getelementptr inbounds nuw float, ptr %28, i64 %30
  call void @_ZSt27__valarray_destroy_elementsIfEvPT_S1_(ptr noundef %26, ptr noundef %31)
  %32 = getelementptr inbounds nuw %"class.std::valarray", ptr %5, i32 0, i32 1
  %33 = load ptr, ptr %32, align 8, !tbaa !41
  call void @_ZSt25__valarray_release_memoryPv(ptr noundef %33)
  br label %34

34:                                               ; preds = %24, %20
  %35 = load ptr, ptr %4, align 8, !tbaa !38
  %36 = getelementptr inbounds nuw %"class.std::valarray", ptr %35, i32 0, i32 0
  %37 = load i64, ptr %36, align 8, !tbaa !40
  %38 = getelementptr inbounds nuw %"class.std::valarray", ptr %5, i32 0, i32 0
  store i64 %37, ptr %38, align 8, !tbaa !40
  %39 = getelementptr inbounds nuw %"class.std::valarray", ptr %5, i32 0, i32 0
  %40 = load i64, ptr %39, align 8, !tbaa !40
  %41 = call noalias noundef ptr @_ZSt22__valarray_get_storageIfEPT_m(i64 noundef %40)
  %42 = getelementptr inbounds nuw %"class.std::valarray", ptr %5, i32 0, i32 1
  store ptr %41, ptr %42, align 8, !tbaa !41
  %43 = load ptr, ptr %4, align 8, !tbaa !38
  %44 = getelementptr inbounds nuw %"class.std::valarray", ptr %43, i32 0, i32 1
  %45 = load ptr, ptr %44, align 8, !tbaa !41
  %46 = load ptr, ptr %4, align 8, !tbaa !38
  %47 = getelementptr inbounds nuw %"class.std::valarray", ptr %46, i32 0, i32 1
  %48 = load ptr, ptr %47, align 8, !tbaa !41
  %49 = getelementptr inbounds nuw %"class.std::valarray", ptr %5, i32 0, i32 0
  %50 = load i64, ptr %49, align 8, !tbaa !40
  %51 = getelementptr inbounds nuw float, ptr %48, i64 %50
  %52 = getelementptr inbounds nuw %"class.std::valarray", ptr %5, i32 0, i32 1
  %53 = load ptr, ptr %52, align 8, !tbaa !41
  call void @_ZSt25__valarray_copy_constructIfEvPKT_S2_PS0_(ptr noundef %45, ptr noundef %51, ptr noundef %53)
  br label %54

54:                                               ; preds = %34, %12
  ret ptr %5
}

; Function Attrs: inlinehint mustprogress nounwind uwtable
define linkonce_odr hidden noundef nonnull align 8 dereferenceable(16) ptr @_ZNK2cv11bioinspired11RetinaColor26getDemultiplexedColorFrameEv(ptr noundef nonnull align 8 dereferenceable(349) %0) #6 comdat align 2 {
  %2 = alloca ptr, align 8
  store ptr %0, ptr %2, align 8, !tbaa !71
  %3 = load ptr, ptr %2, align 8
  %4 = getelementptr inbounds nuw %"class.cv::bioinspired::RetinaColor", ptr %3, i32 0, i32 13
  ret ptr %4
}

; Function Attrs: inlinehint mustprogress nounwind uwtable
define linkonce_odr hidden noundef float @_ZN2cv11bioinspired17BasicRetinaFilter16getMaxInputValueEv(ptr noundef nonnull align 8 dereferenceable(168) %0) #6 comdat align 2 {
  %2 = alloca ptr, align 8
  store ptr %0, ptr %2, align 8, !tbaa !56
  %3 = load ptr, ptr %2, align 8
  %4 = getelementptr inbounds nuw %"class.cv::bioinspired::BasicRetinaFilter", ptr %3, i32 0, i32 8
  %5 = load float, ptr %4, align 4, !tbaa !70
  ret float %5
}

; Function Attrs: inlinehint mustprogress nounwind uwtable
define linkonce_odr hidden noundef nonnull align 8 dereferenceable(16) ptr @_ZNK2cv11bioinspired11RetinaColor19getMultiplexedFrameEv(ptr noundef nonnull align 8 dereferenceable(349) %0) #6 comdat align 2 {
  %2 = alloca ptr, align 8
  store ptr %0, ptr %2, align 8, !tbaa !71
  %3 = load ptr, ptr %2, align 8
  %4 = getelementptr inbounds nuw %"class.cv::bioinspired::RetinaColor", ptr %3, i32 0, i32 8
  %5 = load ptr, ptr %4, align 8, !tbaa !73
  ret ptr %5
}

; Function Attrs: inlinehint mustprogress uwtable
define linkonce_odr hidden void @_ZN2cv11bioinspired11RetinaColor20runColorMultiplexingERKSt8valarrayIfE(ptr noundef nonnull align 8 dereferenceable(349) %0, ptr noundef nonnull align 8 dereferenceable(16) %1) #5 comdat align 2 {
  %3 = alloca ptr, align 8
  %4 = alloca ptr, align 8
  store ptr %0, ptr %3, align 8, !tbaa !71
  store ptr %1, ptr %4, align 8, !tbaa !38
  %5 = load ptr, ptr %3, align 8
  %6 = load ptr, ptr %4, align 8, !tbaa !38
  %7 = getelementptr inbounds nuw %"class.cv::bioinspired::RetinaColor", ptr %5, i32 0, i32 8
  %8 = load ptr, ptr %7, align 8, !tbaa !73
  call void @_ZN2cv11bioinspired11RetinaColor20runColorMultiplexingERKSt8valarrayIfERS3_(ptr noundef nonnull align 8 dereferenceable(349) %5, ptr noundef nonnull align 8 dereferenceable(16) %6, ptr noundef nonnull align 8 dereferenceable(16) %8)
  ret void
}

; Function Attrs: mustprogress uwtable
define hidden void @_ZN2cv11bioinspired12RetinaFilter17runRGBToneMappingERKSt8valarrayIfERS3_bff(ptr noundef nonnull align 8 dereferenceable(1217) %0, ptr noundef nonnull align 8 dereferenceable(16) %1, ptr noundef nonnull align 8 dereferenceable(16) %2, i1 noundef zeroext %3, float noundef %4, float noundef %5) #4 align 2 {
  %7 = alloca ptr, align 8
  %8 = alloca ptr, align 8
  %9 = alloca ptr, align 8
  %10 = alloca i8, align 1
  %11 = alloca float, align 4
  %12 = alloca float, align 4
  store ptr %0, ptr %7, align 8, !tbaa !3
  store ptr %1, ptr %8, align 8, !tbaa !38
  store ptr %2, ptr %9, align 8, !tbaa !38
  %13 = zext i1 %3 to i8
  store i8 %13, ptr %10, align 1, !tbaa !10
  store float %4, ptr %11, align 4, !tbaa !48
  store float %5, ptr %12, align 4, !tbaa !48
  %14 = load ptr, ptr %7, align 8
  %15 = load ptr, ptr %8, align 8, !tbaa !38
  %16 = call noundef zeroext i1 @_ZN2cv11bioinspired12RetinaFilter10checkInputERKSt8valarrayIfEb(ptr noundef nonnull align 8 dereferenceable(1217) %14, ptr noundef nonnull align 8 dereferenceable(16) %15, i1 noundef zeroext true)
  br i1 %16, label %18, label %17

17:                                               ; preds = %6
  br label %37

18:                                               ; preds = %6
  %19 = getelementptr inbounds nuw %"class.cv::bioinspired::RetinaFilter", ptr %14, i32 0, i32 11
  %20 = load ptr, ptr %8, align 8, !tbaa !38
  call void @_ZN2cv11bioinspired11RetinaColor20runColorMultiplexingERKSt8valarrayIfE(ptr noundef nonnull align 8 dereferenceable(349) %19, ptr noundef nonnull align 8 dereferenceable(16) %20)
  %21 = getelementptr inbounds nuw %"class.cv::bioinspired::RetinaFilter", ptr %14, i32 0, i32 11
  %22 = call noundef nonnull align 8 dereferenceable(16) ptr @_ZNK2cv11bioinspired11RetinaColor19getMultiplexedFrameEv(ptr noundef nonnull align 8 dereferenceable(349) %21)
  %23 = load ptr, ptr %9, align 8, !tbaa !38
  %24 = load float, ptr %11, align 4, !tbaa !48
  %25 = load float, ptr %12, align 4, !tbaa !48
  call void @_ZN2cv11bioinspired12RetinaFilter19_runGrayToneMappingERKSt8valarrayIfERS3_ff(ptr noundef nonnull align 8 dereferenceable(1217) %14, ptr noundef nonnull align 8 dereferenceable(16) %22, ptr noundef nonnull align 8 dereferenceable(16) %23, float noundef %24, float noundef %25)
  %26 = getelementptr inbounds nuw %"class.cv::bioinspired::RetinaFilter", ptr %14, i32 0, i32 11
  %27 = load ptr, ptr %9, align 8, !tbaa !38
  %28 = load i8, ptr %10, align 1, !tbaa !10, !range !14, !noundef !15
  %29 = trunc i8 %28 to i1
  %30 = getelementptr inbounds nuw %"class.cv::bioinspired::RetinaFilter", ptr %14, i32 0, i32 8
  %31 = call noundef float @_ZN2cv11bioinspired17BasicRetinaFilter16getMaxInputValueEv(ptr noundef nonnull align 8 dereferenceable(168) %30)
  call void @_ZN2cv11bioinspired11RetinaColor22runColorDemultiplexingERKSt8valarrayIfEbf(ptr noundef nonnull align 8 dereferenceable(349) %26, ptr noundef nonnull align 8 dereferenceable(16) %27, i1 noundef zeroext %29, float noundef %31)
  %32 = getelementptr inbounds nuw %"class.cv::bioinspired::RetinaFilter", ptr %14, i32 0, i32 11
  call void @_ZN2cv11bioinspired11RetinaColor35normalizeRGBOutput_0_maxOutputValueEf(ptr noundef nonnull align 8 dereferenceable(349) %32, float noundef 2.550000e+02)
  %33 = getelementptr inbounds nuw %"class.cv::bioinspired::RetinaFilter", ptr %14, i32 0, i32 11
  %34 = call noundef nonnull align 8 dereferenceable(16) ptr @_ZNK2cv11bioinspired11RetinaColor26getDemultiplexedColorFrameEv(ptr noundef nonnull align 8 dereferenceable(349) %33)
  %35 = load ptr, ptr %9, align 8, !tbaa !38
  %36 = call noundef nonnull align 8 dereferenceable(16) ptr @_ZNSt8valarrayIfEaSERKS0_(ptr noundef nonnull align 8 dereferenceable(16) %35, ptr noundef nonnull align 8 dereferenceable(16) %34)
  br label %37

37:                                               ; preds = %18, %17
  ret void
}