; Function Attrs: mustprogress uwtable
define hidden void @_ZN2cv11bioinspired12RetinaFilter17runRGBToneMappingERKSt8valarrayIfERS3_bff(ptr noundef nonnull align 8 dereferenceable(1217) %0, ptr noundef nonnull align 8 dereferenceable(16) %1, ptr noundef nonnull align 8 dereferenceable(16) %2, i1 noundef zeroext %3, float noundef %4, float noundef %5) local_unnamed_addr #3 align 2 {
  %7 = tail call noundef zeroext i1 @_ZN2cv11bioinspired12RetinaFilter10checkInputERKSt8valarrayIfEb(ptr noundef nonnull align 8 dereferenceable(1217) %0, ptr noundef nonnull align 8 dereferenceable(16) %1, i1 zeroext poison)
  br i1 %7, label %8, label %_ZNSt8valarrayIfEaSERKS0_.exit

8:                                                ; preds = %6
  %9 = getelementptr inbounds nuw i8, ptr %0, i64 848
  %10 = getelementptr inbounds nuw i8, ptr %0, i64 1048
  %11 = load ptr, ptr %10, align 8, !tbaa !92
  tail call void @_ZN2cv11bioinspired11RetinaColor20runColorMultiplexingERKSt8valarrayIfERS3_(ptr noundef nonnull align 8 dereferenceable(349) %9, ptr noundef nonnull align 8 dereferenceable(16) %1, ptr noundef nonnull align 8 dereferenceable(16) %11)
  %12 = load ptr, ptr %10, align 8, !tbaa !92
  tail call void @_ZN2cv11bioinspired12RetinaFilter19_runGrayToneMappingERKSt8valarrayIfERS3_ff(ptr noundef nonnull align 8 dereferenceable(1217) %0, ptr noundef nonnull align 8 dereferenceable(16) %12, ptr noundef nonnull align 8 dereferenceable(16) %2, float noundef %4, float noundef %5)
  %13 = getelementptr inbounds nuw i8, ptr %0, i64 188
  %14 = load float, ptr %13, align 4, !tbaa !58
  tail call void @_ZN2cv11bioinspired11RetinaColor22runColorDemultiplexingERKSt8valarrayIfEbf(ptr noundef nonnull align 8 dereferenceable(349) %9, ptr noundef nonnull align 8 dereferenceable(16) %2, i1 noundef zeroext %3, float noundef %14)
  tail call void @_ZN2cv11bioinspired11RetinaColor35normalizeRGBOutput_0_maxOutputValueEf(ptr noundef nonnull align 8 dereferenceable(349) %9, float noundef 2.550000e+02)
  %15 = getelementptr inbounds nuw i8, ptr %0, i64 1120
  %16 = load i64, ptr %2, align 8, !tbaa !3
  %17 = load i64, ptr %15, align 8, !tbaa !3
  %18 = icmp eq i64 %16, %17
  br i1 %18, label %19, label %26

19:                                               ; preds = %8
  %.not.i.i.i = icmp eq i64 %16, 0
  br i1 %.not.i.i.i, label %_ZNSt8valarrayIfEaSERKS0_.exit, label %20

20:                                               ; preds = %19
  %21 = getelementptr inbounds nuw i8, ptr %2, i64 8
  %22 = load ptr, ptr %21, align 8, !tbaa !10
  %23 = getelementptr inbounds nuw i8, ptr %0, i64 1128
  %24 = load ptr, ptr %23, align 8, !tbaa !10
  %25 = shl i64 %16, 2
  tail call void @llvm.memcpy.p0.p0.i64(ptr align 4 %22, ptr align 4 %24, i64 %25, i1 false), !alias.scope !107
  br label %_ZNSt8valarrayIfEaSERKS0_.exit

26:                                               ; preds = %8
  %27 = getelementptr inbounds nuw i8, ptr %2, i64 8
  %28 = load ptr, ptr %27, align 8, !tbaa !10
  %.not.i = icmp eq ptr %28, null
  br i1 %.not.i, label %30, label %29

29:                                               ; preds = %26
  tail call void @_ZdlPv(ptr noundef nonnull %28) #21
  %.pre.i = load i64, ptr %15, align 8, !tbaa !3
  br label %30

30:                                               ; preds = %29, %26
  %31 = phi i64 [ %.pre.i, %29 ], [ %17, %26 ]
  store i64 %31, ptr %2, align 8, !tbaa !3
  %32 = shl i64 %31, 2
  %33 = tail call noalias noundef nonnull ptr @_Znwm(i64 noundef %32) #18
  store ptr %33, ptr %27, align 8, !tbaa !10
  %34 = getelementptr inbounds nuw i8, ptr %0, i64 1128
  %35 = load ptr, ptr %34, align 8, !tbaa !10
  %.not.i.i7.i = icmp eq ptr %35, null
  br i1 %.not.i.i7.i, label %_ZNSt8valarrayIfEaSERKS0_.exit, label %36

36:                                               ; preds = %30
  %37 = load i64, ptr %2, align 8, !tbaa !3
  %.idx.i = shl nuw nsw i64 %37, 2
  tail call void @llvm.memcpy.p0.p0.i64(ptr nonnull align 4 %33, ptr nonnull align 4 %35, i64 %.idx.i, i1 false)
  br label %_ZNSt8valarrayIfEaSERKS0_.exit

_ZNSt8valarrayIfEaSERKS0_.exit:                   ; preds = %36, %30, %20, %19, %6
  ret void
}